target datalayout = "e-m:e-p270:32:32-p271:32:32-p272:64:64-i64:64-i128:128-f80:128-n8:16:32:64-S128"
target triple = "x86_64-pc-linux-gnu"

%struct.slurm_preempt_ops = type { ptr, ptr, ptr }
%struct.preempt_candidates_t = type { ptr, ptr }
%struct.job_record = type { i32, ptr, ptr, ptr, ptr, i16, i32, i32, i32, ptr, i32, ptr, ptr, i16, ptr, double, i64, ptr, ptr, ptr, ptr, ptr, ptr, i32, ptr, i32, i64, i64, i32, i32, ptr, i16, i64, i64, i8, i32, ptr, ptr, ptr, ptr, ptr, ptr, ptr, ptr, i32, ptr, ptr, i32, ptr, i32, ptr, i32, ptr, i32, ptr, ptr, ptr, ptr, ptr, ptr, i32, i16, i64, ptr, ptr, ptr, ptr, %struct.acct_policy_limit_set_t, i16, ptr, ptr, ptr, ptr, ptr, i32, ptr, ptr, ptr, ptr, ptr, i32, i32, ptr, ptr, ptr, i16, ptr, ptr, i8, ptr, ptr, i64, i64, i8, i32, i32, i8, i32, ptr, i32, i64, i32, ptr, ptr, ptr, i8, i16, i64, i32, ptr, ptr, ptr, ptr, ptr, i16, i32, ptr, ptr, ptr, ptr, i32, ptr, i32, i16, i64, ptr, i32, i32, ptr, i64, ptr, ptr, i64, i32, i32, i64, i32, i32, ptr, ptr, ptr, ptr, ptr, ptr, ptr, ptr, ptr, ptr, ptr, ptr, i32, ptr, i16, i16, i16, i16, ptr, i32, i32, i8, i64 }
%struct.acct_policy_limit_set_t = type { i16, i16, ptr }
%struct.part_record = type { i32, ptr, ptr, ptr, ptr, ptr, ptr, i32, ptr, ptr, ptr, ptr, ptr, i32, i64, i32, ptr, ptr, ptr, ptr, ptr, i32, i32, ptr, i32, i32, i64, i32, i32, i16, i32, i32, i32, i32, ptr, ptr, ptr, ptr, ptr, double, i16, i16, i16, i16, ptr, ptr, i16, i16, i32, i16, i32, i32, i32, i32, i16, ptr, ptr, ptr }

@plugin_inited = internal global i32 0, align 4
@ops = internal global %struct.slurm_preempt_ops zeroinitializer, align 8
@youngest_order = internal global i8 0, align 1
@.str.7 = private unnamed_addr constant [20 x i8] c"%s: job_ptr is NULL\00", align 1
@__func__.slurm_find_preemptable_jobs = private unnamed_addr constant [28 x i8] c"slurm_find_preemptable_jobs\00", align 1
@.str.8 = private unnamed_addr constant [20 x i8] c"%s: %pJ not pending\00", align 1
@.str.9 = private unnamed_addr constant [31 x i8] c"%s: %pJ has NULL partition ptr\00", align 1
@.str.10 = private unnamed_addr constant [34 x i8] c"%s: partition %s node_bitmap=NULL\00", align 1
@job_list = external global ptr, align 8

; Function Attrs: nounwind uwtable
define dso_local zeroext i1 @slurm_preemption_enabled() #0 {
  %1 = alloca i1, align 1
  %2 = alloca i8, align 1
  %3 = alloca i32, align 4
  call void @llvm.lifetime.start.p0(i64 1, ptr %2) #6
  store i8 0, ptr %2, align 1
  %4 = load i32, ptr @plugin_inited, align 4
  %5 = icmp eq i32 %4, 1
  br i1 %5, label %6, label %7

6:                                                ; preds = %0
  store i1 false, ptr %1, align 1
  store i32 1, ptr %3, align 4
  br label %17

7:                                                ; preds = %0
  %8 = load ptr, ptr getelementptr inbounds nuw (%struct.slurm_preempt_ops, ptr @ops, i32 0, i32 2), align 8
  %9 = call i32 %8(ptr noundef null, i32 noundef 0, ptr noundef %2)
  %10 = icmp ne i32 %9, 0
  br i1 %10, label %11, label %14

11:                                               ; preds = %7
  %12 = load i8, ptr %2, align 1, !range !8, !noundef !9
  %13 = trunc i8 %12 to i1
  store i1 %13, ptr %1, align 1
  store i32 1, ptr %3, align 4
  br label %17

14:                                               ; preds = %7
  %15 = load i8, ptr %2, align 1, !range !8, !noundef !9
  %16 = trunc i8 %15 to i1
  store i1 %16, ptr %1, align 1
  store i32 1, ptr %3, align 4
  br label %17

17:                                               ; preds = %14, %11, %6
  call void @llvm.lifetime.end.p0(i64 1, ptr %2) #6
  %18 = load i1, ptr %1, align 1
  ret i1 %18
}

; Function Attrs: nounwind uwtable
define dso_local ptr @slurm_find_preemptable_jobs(ptr noundef %0) #0 {
  %2 = alloca ptr, align 8
  %3 = alloca ptr, align 8
  %4 = alloca %struct.preempt_candidates_t, align 8
  %5 = alloca i32, align 4
  store ptr %0, ptr %3, align 8
  call void @llvm.lifetime.start.p0(i64 16, ptr %4) #6
  %6 = getelementptr inbounds nuw %struct.preempt_candidates_t, ptr %4, i32 0, i32 0
  %7 = load ptr, ptr %3, align 8
  store ptr %7, ptr %6, align 8
  %8 = getelementptr inbounds nuw %struct.preempt_candidates_t, ptr %4, i32 0, i32 1
  store ptr null, ptr %8, align 8
  %9 = load i32, ptr @plugin_inited, align 4
  %10 = icmp eq i32 %9, 1
  br i1 %10, label %11, label %12

11:                                               ; preds = %1
  store ptr null, ptr %2, align 8
  store i32 1, ptr %5, align 4
  br label %77

12:                                               ; preds = %1
  %13 = load ptr, ptr %3, align 8
  %14 = icmp ne ptr %13, null
  br i1 %14, label %17, label %15

15:                                               ; preds = %12
  %16 = call i32 (ptr, ...) @error(ptr noundef @.str.7, ptr noundef @__func__.slurm_find_preemptable_jobs)
  store ptr null, ptr %2, align 8
  store i32 1, ptr %5, align 4
  br label %77

17:                                               ; preds = %12
  %18 = load ptr, ptr %3, align 8
  %19 = getelementptr inbounds nuw %struct.job_record, ptr %18, i32 0, i32 60
  %20 = load i32, ptr %19, align 8
  %21 = and i32 %20, 255
  %22 = icmp eq i32 %21, 0
  br i1 %22, label %26, label %23

23:                                               ; preds = %17
  %24 = load ptr, ptr %3, align 8
  %25 = call i32 (ptr, ...) @error(ptr noundef @.str.8, ptr noundef @__func__.slurm_find_preemptable_jobs, ptr noundef %24)
  store ptr null, ptr %2, align 8
  store i32 1, ptr %5, align 4
  br label %77

26:                                               ; preds = %17
  %27 = load ptr, ptr %3, align 8
  %28 = getelementptr inbounds nuw %struct.job_record, ptr %27, i32 0, i32 89
  %29 = load ptr, ptr %28, align 8
  %30 = icmp ne ptr %29, null
  br i1 %30, label %34, label %31

31:                                               ; preds = %26
  %32 = load ptr, ptr %3, align 8
  %33 = call i32 (ptr, ...) @error(ptr noundef @.str.9, ptr noundef @__func__.slurm_find_preemptable_jobs, ptr noundef %32)
  store ptr null, ptr %2, align 8
  store i32 1, ptr %5, align 4
  br label %77

34:                                               ; preds = %26
  %35 = load ptr, ptr %3, align 8
  %36 = getelementptr inbounds nuw %struct.job_record, ptr %35, i32 0, i32 89
  %37 = load ptr, ptr %36, align 8
  %38 = getelementptr inbounds nuw %struct.part_record, ptr %37, i32 0, i32 35
  %39 = load ptr, ptr %38, align 8
  %40 = icmp ne ptr %39, null
  br i1 %40, label %48, label %41

41:                                               ; preds = %34
  %42 = load ptr, ptr %3, align 8
  %43 = getelementptr inbounds nuw %struct.job_record, ptr %42, i32 0, i32 89
  %44 = load ptr, ptr %43, align 8
  %45 = getelementptr inbounds nuw %struct.part_record, ptr %44, i32 0, i32 34
  %46 = load ptr, ptr %45, align 8
  %47 = call i32 (ptr, ...) @error(ptr noundef @.str.10, ptr noundef @__func__.slurm_find_preemptable_jobs, ptr noundef %46)
  store ptr null, ptr %2, align 8
  store i32 1, ptr %5, align 4
  br label %77

48:                                               ; preds = %34
  %49 = call zeroext i1 @slurm_preemption_enabled()
  br i1 %49, label %53, label %50

50:                                               ; preds = %48
  %51 = load ptr, ptr %3, align 8
  %52 = call zeroext i1 @job_uses_max_start_delay_resv(ptr noundef %51)
  br i1 %52, label %53, label %56

53:                                               ; preds = %50, %48
  %54 = load ptr, ptr @job_list, align 8
  %55 = call i32 @list_for_each(ptr noundef %54, ptr noundef @_add_preemptable_job, ptr noundef %4)
  br label %56

56:                                               ; preds = %53, %50
  %57 = getelementptr inbounds nuw %struct.preempt_candidates_t, ptr %4, i32 0, i32 1
  %58 = load ptr, ptr %57, align 8
  %59 = icmp ne ptr %58, null
  br i1 %59, label %60, label %66

60:                                               ; preds = %56
  %61 = load i8, ptr @youngest_order, align 1, !range !8, !noundef !9
  %62 = trunc i8 %61 to i1
  br i1 %62, label %63, label %66

63:                                               ; preds = %60
  %64 = getelementptr inbounds nuw %struct.preempt_candidates_t, ptr %4, i32 0, i32 1
  %65 = load ptr, ptr %64, align 8
  call void @list_sort(ptr noundef %65, ptr noundef @_sort_by_youngest)
  br label %74

66:                                               ; preds = %60, %56
  %67 = getelementptr inbounds nuw %struct.preempt_candidates_t, ptr %4, i32 0, i32 1
  %68 = load ptr, ptr %67, align 8
  %69 = icmp ne ptr %68, null
  br i1 %69, label %70, label %73

70:                                               ; preds = %66
  %71 = getelementptr inbounds nuw %struct.preempt_candidates_t, ptr %4, i32 0, i32 1
  %72 = load ptr, ptr %71, align 8
  call void @list_sort(ptr noundef %72, ptr noundef @_sort_by_prio)
  br label %73

73:                                               ; preds = %70, %66
  br label %74

74:                                               ; preds = %73, %63
  %75 = getelementptr inbounds nuw %struct.preempt_candidates_t, ptr %4, i32 0, i32 1
  %76 = load ptr, ptr %75, align 8
  store ptr %76, ptr %2, align 8
  store i32 1, ptr %5, align 4
  br label %77

77:                                               ; preds = %74, %41, %31, %23, %15, %11
  call void @llvm.lifetime.end.p0(i64 16, ptr %4) #6
  %78 = load ptr, ptr %2, align 8
  ret ptr %78
}