; Function Attrs: nounwind uwtable
define dso_local ptr @slurm_find_preemptable_jobs(ptr noundef %0) local_unnamed_addr #0 {
  %2 = alloca i8, align 1
  %3 = alloca %struct.preempt_candidates_t, align 8
  call void @llvm.lifetime.start.p0(i64 16, ptr nonnull %3) #8
  store ptr %0, ptr %3, align 8
  %4 = getelementptr inbounds nuw i8, ptr %3, i64 8
  store ptr null, ptr %4, align 8
  %5 = load i32, ptr @plugin_inited, align 4
  %6 = icmp eq i32 %5, 1
  br i1 %6, label %39, label %7

7:                                                ; preds = %1
  %.not = icmp eq ptr %0, null
  br i1 %.not, label %8, label %10

8:                                                ; preds = %7
  %9 = tail call i32 (ptr, ...) @error(ptr noundef nonnull @.str.7, ptr noundef nonnull @__func__.slurm_find_preemptable_jobs) #8
  br label %39

10:                                               ; preds = %7
  %11 = getelementptr inbounds nuw i8, ptr %0, i64 448
  %12 = load i32, ptr %11, align 8
  %13 = and i32 %12, 255
  %14 = icmp eq i32 %13, 0
  br i1 %14, label %17, label %15

15:                                               ; preds = %10
  %16 = tail call i32 (ptr, ...) @error(ptr noundef nonnull @.str.8, ptr noundef nonnull @__func__.slurm_find_preemptable_jobs, ptr noundef nonnull %0) #8
  br label %39

17:                                               ; preds = %10
  %18 = getelementptr inbounds nuw i8, ptr %0, i64 672
  %19 = load ptr, ptr %18, align 8
  %.not14 = icmp eq ptr %19, null
  br i1 %.not14, label %20, label %22

20:                                               ; preds = %17
  %21 = tail call i32 (ptr, ...) @error(ptr noundef nonnull @.str.9, ptr noundef nonnull @__func__.slurm_find_preemptable_jobs, ptr noundef nonnull %0) #8
  br label %39

22:                                               ; preds = %17
  %23 = getelementptr inbounds nuw i8, ptr %19, i64 240
  %24 = load ptr, ptr %23, align 8
  %.not15 = icmp eq ptr %24, null
  br i1 %.not15, label %25, label %slurm_preemption_enabled.exit

25:                                               ; preds = %22
  %26 = getelementptr inbounds nuw i8, ptr %19, i64 232
  %27 = load ptr, ptr %26, align 8
  %28 = tail call i32 (ptr, ...) @error(ptr noundef nonnull @.str.10, ptr noundef nonnull @__func__.slurm_find_preemptable_jobs, ptr noundef %27) #8
  br label %39

slurm_preemption_enabled.exit:                    ; preds = %22
  call void @llvm.lifetime.start.p0(i64 1, ptr nonnull %2) #8
  store i8 0, ptr %2, align 1
  %29 = load ptr, ptr getelementptr inbounds nuw (i8, ptr @ops, i64 16), align 8
  %30 = call i32 %29(ptr noundef null, i32 noundef 0, ptr noundef nonnull %2) #8
  %31 = load i8, ptr %2, align 1, !range !8, !noundef !9
  %32 = trunc nuw i8 %31 to i1
  call void @llvm.lifetime.end.p0(i64 1, ptr nonnull %2) #8
  br i1 %32, label %35, label %33

33:                                               ; preds = %slurm_preemption_enabled.exit
  %34 = call zeroext i1 @job_uses_max_start_delay_resv(ptr noundef nonnull %0) #8
  br i1 %34, label %35, label %.thread

35:                                               ; preds = %slurm_preemption_enabled.exit, %33
  %36 = load ptr, ptr @job_list, align 8
  %37 = call i32 @list_for_each(ptr noundef %36, ptr noundef nonnull @_add_preemptable_job, ptr noundef nonnull %3) #8
  %.pre = load ptr, ptr %4, align 8
  %.not16 = icmp eq ptr %.pre, null
  br i1 %.not16, label %.thread, label %.thread.sink.split

.thread.sink.split:                               ; preds = %35
  %.b17 = load i1, ptr @youngest_order, align 1
  %_sort_by_youngest._sort_by_prio = select i1 %.b17, ptr @_sort_by_youngest, ptr @_sort_by_prio
  call void @list_sort(ptr noundef nonnull %.pre, ptr noundef nonnull %_sort_by_youngest._sort_by_prio) #8
  br label %.thread

.thread:                                          ; preds = %.thread.sink.split, %33, %35
  %38 = load ptr, ptr %4, align 8
  br label %39

39:                                               ; preds = %1, %.thread, %25, %20, %15, %8
  %.0 = phi ptr [ %38, %.thread ], [ null, %25 ], [ null, %20 ], [ null, %15 ], [ null, %8 ], [ null, %1 ]
  call void @llvm.lifetime.end.p0(i64 16, ptr nonnull %3) #8
  ret ptr %.0
}